target datalayout = "e-m:e-p270:32:32-p271:32:32-p272:64:64-i64:64-i128:128-f80:128-n8:16:32:64-S128"
target triple = "x86_64-pc-linux-gnu"

; Function Attrs: nounwind uwtable
define i32 @version_string_compare(ptr noundef %0, i64 noundef %1, ptr noundef %2, i64 noundef %3) #0 {
  %5 = alloca i32, align 4
  %6 = alloca ptr, align 8
  %7 = alloca i64, align 8
  %8 = alloca ptr, align 8
  %9 = alloca i64, align 8
  %10 = alloca i64, align 8
  %11 = alloca i64, align 8
  %12 = alloca i32, align 4
  %13 = alloca i32, align 4
  store ptr %0, ptr %6, align 8
  store i64 %1, ptr %7, align 8
  store ptr %2, ptr %8, align 8
  store i64 %3, ptr %9, align 8
  store i32 0, ptr %12, align 4
  store i32 0, ptr %13, align 4
  store i64 0, ptr %10, align 8
  store i64 0, ptr %11, align 8
  br label %14

14:                                               ; preds = %86, %4
  %15 = load i64, ptr %10, align 8
  %16 = load i64, ptr %7, align 8
  %17 = icmp ult i64 %15, %16
  br i1 %17, label %22, label %18

18:                                               ; preds = %14
  %19 = load i64, ptr %11, align 8
  %20 = load i64, ptr %9, align 8
  %21 = icmp ult i64 %19, %20
  br label %22

22:                                               ; preds = %18, %14
  %23 = phi i1 [ true, %14 ], [ %21, %18 ]
  br i1 %23, label %24, label %91

24:                                               ; preds = %22
  br label %25

25:                                               ; preds = %38, %24
  %26 = load i64, ptr %10, align 8
  %27 = load i64, ptr %7, align 8
  %28 = icmp ult i64 %26, %27
  br i1 %28, label %29, label %36

29:                                               ; preds = %25
  %30 = load ptr, ptr %6, align 8
  %31 = load i64, ptr %10, align 8
  %32 = getelementptr inbounds i8, ptr %30, i64 %31
  %33 = load i8, ptr %32, align 1
  %34 = sext i8 %33 to i32
  %35 = icmp ne i32 %34, 46
  br label %36

36:                                               ; preds = %29, %25
  %37 = phi i1 [ false, %25 ], [ %35, %29 ]
  br i1 %37, label %38, label %50

38:                                               ; preds = %36
  %39 = load i32, ptr %12, align 4
  %40 = mul nsw i32 %39, 10
  %41 = load ptr, ptr %6, align 8
  %42 = load i64, ptr %10, align 8
  %43 = getelementptr inbounds i8, ptr %41, i64 %42
  %44 = load i8, ptr %43, align 1
  %45 = sext i8 %44 to i32
  %46 = sub nsw i32 %45, 48
  %47 = add nsw i32 %40, %46
  store i32 %47, ptr %12, align 4
  %48 = load i64, ptr %10, align 8
  %49 = add i64 %48, 1
  store i64 %49, ptr %10, align 8
  br label %25

50:                                               ; preds = %36
  br label %51

51:                                               ; preds = %64, %50
  %52 = load i64, ptr %11, align 8
  %53 = load i64, ptr %9, align 8
  %54 = icmp ult i64 %52, %53
  br i1 %54, label %55, label %62

55:                                               ; preds = %51
  %56 = load ptr, ptr %8, align 8
  %57 = load i64, ptr %11, align 8
  %58 = getelementptr inbounds i8, ptr %56, i64 %57
  %59 = load i8, ptr %58, align 1
  %60 = sext i8 %59 to i32
  %61 = icmp ne i32 %60, 46
  br label %62

62:                                               ; preds = %55, %51
  %63 = phi i1 [ false, %51 ], [ %61, %55 ]
  br i1 %63, label %64, label %76

64:                                               ; preds = %62
  %65 = load i32, ptr %13, align 4
  %66 = mul nsw i32 %65, 10
  %67 = load ptr, ptr %8, align 8
  %68 = load i64, ptr %11, align 8
  %69 = getelementptr inbounds i8, ptr %67, i64 %68
  %70 = load i8, ptr %69, align 1
  %71 = sext i8 %70 to i32
  %72 = sub nsw i32 %71, 48
  %73 = add nsw i32 %66, %72
  store i32 %73, ptr %13, align 4
  %74 = load i64, ptr %11, align 8
  %75 = add i64 %74, 1
  store i64 %75, ptr %11, align 8
  br label %51

76:                                               ; preds = %62
  %77 = load i32, ptr %12, align 4
  %78 = load i32, ptr %13, align 4
  %79 = icmp sgt i32 %77, %78
  br i1 %79, label %80, label %81

80:                                               ; preds = %76
  store i32 1, ptr %5, align 4
  br label %92

81:                                               ; preds = %76
  %82 = load i32, ptr %13, align 4
  %83 = load i32, ptr %12, align 4
  %84 = icmp sgt i32 %82, %83
  br i1 %84, label %85, label %86

85:                                               ; preds = %81
  store i32 -1, ptr %5, align 4
  br label %92

86:                                               ; preds = %81
  store i32 0, ptr %13, align 4
  store i32 0, ptr %12, align 4
  %87 = load i64, ptr %10, align 8
  %88 = add i64 %87, 1
  store i64 %88, ptr %10, align 8
  %89 = load i64, ptr %11, align 8
  %90 = add i64 %89, 1
  store i64 %90, ptr %11, align 8
  br label %14

91:                                               ; preds = %22
  store i32 0, ptr %5, align 4
  br label %92

92:                                               ; preds = %91, %85, %80
  %93 = load i32, ptr %5, align 4
  ret i32 %93
}