; Function Attrs: nofree norecurse nosync nounwind memory(argmem: read) uwtable
define range(i32 -1, 2) i32 @version_string_compare(ptr noundef readonly captures(none) %0, i64 noundef %1, ptr noundef readonly captures(none) %2, i64 noundef %3) local_unnamed_addr #9 {
  %5 = or i64 %1, %3
  %.not57 = icmp eq i64 %5, 0
  br i1 %.not57, label %._crit_edge, label %.preheader

.preheader:                                       ; preds = %4, %27
  %.03052 = phi i64 [ %29, %27 ], [ 0, %4 ]
  %.03251 = phi i64 [ %28, %27 ], [ 0, %4 ]
  %6 = icmp ult i64 %.03251, %1
  br i1 %6, label %.lr.ph, label %.critedge

.lr.ph:                                           ; preds = %.preheader, %9
  %.12938 = phi i32 [ %13, %9 ], [ 0, %.preheader ]
  %.13337 = phi i64 [ %14, %9 ], [ %.03251, %.preheader ]
  %7 = getelementptr inbounds i8, ptr %0, i64 %.13337
  %8 = load i8, ptr %7, align 1
  %.not = icmp eq i8 %8, 46
  br i1 %.not, label %.critedge, label %9

9:                                                ; preds = %.lr.ph
  %10 = sext i8 %8 to i32
  %11 = mul nsw i32 %.12938, 10
  %12 = add i32 %11, -48
  %13 = add i32 %12, %10
  %14 = add i64 %.13337, 1
  %exitcond.not = icmp eq i64 %14, %1
  br i1 %exitcond.not, label %.critedge, label %.lr.ph

.critedge:                                        ; preds = %.lr.ph, %9, %.preheader
  %.133.lcssa = phi i64 [ %.03251, %.preheader ], [ %1, %9 ], [ %.13337, %.lr.ph ]
  %.129.lcssa = phi i32 [ 0, %.preheader ], [ %13, %9 ], [ %.12938, %.lr.ph ]
  %15 = icmp ult i64 %.03052, %3
  br i1 %15, label %.lr.ph45, label %.critedge2

.lr.ph45:                                         ; preds = %.critedge, %18
  %.144 = phi i32 [ %22, %18 ], [ 0, %.critedge ]
  %.13143 = phi i64 [ %23, %18 ], [ %.03052, %.critedge ]
  %16 = getelementptr inbounds i8, ptr %2, i64 %.13143
  %17 = load i8, ptr %16, align 1
  %.not36 = icmp eq i8 %17, 46
  br i1 %.not36, label %.critedge2, label %18

18:                                               ; preds = %.lr.ph45
  %19 = sext i8 %17 to i32
  %20 = mul nsw i32 %.144, 10
  %21 = add i32 %20, -48
  %22 = add i32 %21, %19
  %23 = add i64 %.13143, 1
  %exitcond58.not = icmp eq i64 %23, %3
  br i1 %exitcond58.not, label %.critedge2, label %.lr.ph45

.critedge2:                                       ; preds = %.lr.ph45, %18, %.critedge
  %.131.lcssa = phi i64 [ %.03052, %.critedge ], [ %3, %18 ], [ %.13143, %.lr.ph45 ]
  %.1.lcssa = phi i32 [ 0, %.critedge ], [ %22, %18 ], [ %.144, %.lr.ph45 ]
  %24 = icmp sgt i32 %.129.lcssa, %.1.lcssa
  br i1 %24, label %._crit_edge, label %25

25:                                               ; preds = %.critedge2
  %26 = icmp sgt i32 %.1.lcssa, %.129.lcssa
  br i1 %26, label %._crit_edge, label %27

27:                                               ; preds = %25
  %28 = add i64 %.133.lcssa, 1
  %29 = add i64 %.131.lcssa, 1
  %30 = icmp ult i64 %28, %1
  %31 = icmp ult i64 %29, %3
  %32 = or i1 %30, %31
  br i1 %32, label %.preheader, label %._crit_edge

._crit_edge:                                      ; preds = %.critedge2, %25, %27, %4
  %.034 = phi i32 [ 0, %4 ], [ 0, %27 ], [ -1, %25 ], [ 1, %.critedge2 ]
  ret i32 %.034
}